; Function Attrs: nounwind uwtable
define hidden void @zif_getmyinode(ptr nocapture noundef readonly %0, ptr nocapture noundef writeonly %1) local_unnamed_addr #0 {
  %3 = getelementptr inbounds i8, ptr %0, i64 44
  %4 = load i32, ptr %3, align 4
  %.not = icmp eq i32 %4, 0
  br i1 %.not, label %6, label %5

5:                                                ; preds = %2
  tail call void @zend_wrong_parameters_none_error() #3
  br label %35

6:                                                ; preds = %2
  %7 = tail call ptr @sapi_get_stat() #3
  %8 = load i64, ptr getelementptr inbounds (%struct._php_basic_globals, ptr @basic_globals, i64 0, i32 13), align 8
  %9 = icmp eq i64 %8, -1
  %10 = load i64, ptr getelementptr inbounds (%struct._php_basic_globals, ptr @basic_globals, i64 0, i32 14), align 8
  %11 = icmp eq i64 %10, -1
  %or.cond.i = select i1 %9, i1 true, i1 %11
  br i1 %or.cond.i, label %12, label %php_statpage.exitthread-pre-split

12:                                               ; preds = %6
  %.not.i = icmp eq ptr %7, null
  br i1 %.not.i, label %24, label %13

13:                                               ; preds = %12
  %14 = getelementptr inbounds i8, ptr %7, i64 28
  %15 = load i32, ptr %14, align 4
  %16 = zext i32 %15 to i64
  store i64 %16, ptr getelementptr inbounds (%struct._php_basic_globals, ptr @basic_globals, i64 0, i32 13), align 8
  %17 = getelementptr inbounds i8, ptr %7, i64 32
  %18 = load i32, ptr %17, align 8
  %19 = zext i32 %18 to i64
  store i64 %19, ptr getelementptr inbounds (%struct._php_basic_globals, ptr @basic_globals, i64 0, i32 14), align 8
  %20 = getelementptr inbounds i8, ptr %7, i64 8
  %21 = load i64, ptr %20, align 8
  store i64 %21, ptr getelementptr inbounds (%struct._php_basic_globals, ptr @basic_globals, i64 0, i32 15), align 8
  %22 = getelementptr inbounds i8, ptr %7, i64 88
  %23 = load i64, ptr %22, align 8
  store i64 %23, ptr getelementptr inbounds (%struct._php_basic_globals, ptr @basic_globals, i64 0, i32 16), align 8
  br label %php_statpage.exit

24:                                               ; preds = %12
  %25 = tail call i32 @getuid() #3
  %26 = zext i32 %25 to i64
  store i64 %26, ptr getelementptr inbounds (%struct._php_basic_globals, ptr @basic_globals, i64 0, i32 13), align 8
  %27 = tail call i32 @getgid() #3
  %28 = zext i32 %27 to i64
  store i64 %28, ptr getelementptr inbounds (%struct._php_basic_globals, ptr @basic_globals, i64 0, i32 14), align 8
  br label %php_statpage.exitthread-pre-split

php_statpage.exitthread-pre-split:                ; preds = %24, %6
  %.pr = load i64, ptr getelementptr inbounds (%struct._php_basic_globals, ptr @basic_globals, i64 0, i32 15), align 8
  br label %php_statpage.exit

php_statpage.exit:                                ; preds = %php_statpage.exitthread-pre-split, %13
  %29 = phi i64 [ %.pr, %php_statpage.exitthread-pre-split ], [ %21, %13 ]
  %30 = icmp slt i64 %29, 0
  br i1 %30, label %31, label %33

31:                                               ; preds = %php_statpage.exit
  %32 = getelementptr inbounds i8, ptr %1, i64 8
  store i32 2, ptr %32, align 8
  br label %35

33:                                               ; preds = %php_statpage.exit
  store i64 %29, ptr %1, align 8
  %34 = getelementptr inbounds i8, ptr %1, i64 8
  store i32 4, ptr %34, align 8
  br label %35

35:                                               ; preds = %33, %31, %5
  ret void
}